target datalayout = "e-m:e-p270:32:32-p271:32:32-p272:64:64-i64:64-i128:128-f80:128-n8:16:32:64-S128"
target triple = "x86_64-pc-linux-gnu"

@make_digest_ex.hexits = internal constant [17 x i8] c"0123456789abcdef\00", align 16

; Function Attrs: nounwind uwtable
define void @make_digest_ex(ptr noundef %0, ptr noundef %1, i32 noundef %2) #0 {
  %4 = alloca ptr, align 8
  %5 = alloca ptr, align 8
  %6 = alloca i32, align 4
  %7 = alloca i32, align 4
  store ptr %0, ptr %4, align 8
  store ptr %1, ptr %5, align 8
  store i32 %2, ptr %6, align 4
  store i32 0, ptr %7, align 4
  br label %8

8:                                                ; preds = %44, %3
  %9 = load i32, ptr %7, align 4
  %10 = load i32, ptr %6, align 4
  %11 = icmp slt i32 %9, %10
  br i1 %11, label %12, label %47

12:                                               ; preds = %8
  %13 = load ptr, ptr %5, align 8
  %14 = load i32, ptr %7, align 4
  %15 = sext i32 %14 to i64
  %16 = getelementptr inbounds i8, ptr %13, i64 %15
  %17 = load i8, ptr %16, align 1
  %18 = zext i8 %17 to i32
  %19 = ashr i32 %18, 4
  %20 = sext i32 %19 to i64
  %21 = getelementptr inbounds [17 x i8], ptr @make_digest_ex.hexits, i64 0, i64 %20
  %22 = load i8, ptr %21, align 1
  %23 = load ptr, ptr %4, align 8
  %24 = load i32, ptr %7, align 4
  %25 = mul nsw i32 %24, 2
  %26 = sext i32 %25 to i64
  %27 = getelementptr inbounds i8, ptr %23, i64 %26
  store i8 %22, ptr %27, align 1
  %28 = load ptr, ptr %5, align 8
  %29 = load i32, ptr %7, align 4
  %30 = sext i32 %29 to i64
  %31 = getelementptr inbounds i8, ptr %28, i64 %30
  %32 = load i8, ptr %31, align 1
  %33 = zext i8 %32 to i32
  %34 = and i32 %33, 15
  %35 = sext i32 %34 to i64
  %36 = getelementptr inbounds [17 x i8], ptr @make_digest_ex.hexits, i64 0, i64 %35
  %37 = load i8, ptr %36, align 1
  %38 = load ptr, ptr %4, align 8
  %39 = load i32, ptr %7, align 4
  %40 = mul nsw i32 %39, 2
  %41 = add nsw i32 %40, 1
  %42 = sext i32 %41 to i64
  %43 = getelementptr inbounds i8, ptr %38, i64 %42
  store i8 %37, ptr %43, align 1
  br label %44

44:                                               ; preds = %12
  %45 = load i32, ptr %7, align 4
  %46 = add nsw i32 %45, 1
  store i32 %46, ptr %7, align 4
  br label %8

47:                                               ; preds = %8
  %48 = load ptr, ptr %4, align 8
  %49 = load i32, ptr %6, align 4
  %50 = mul nsw i32 %49, 2
  %51 = sext i32 %50 to i64
  %52 = getelementptr inbounds i8, ptr %48, i64 %51
  store i8 0, ptr %52, align 1
  ret void
}

; Function Attrs: nounwind uwtable
define void @make_digest(ptr noundef %0, ptr noundef %1) #0 {
  %3 = alloca ptr, align 8
  %4 = alloca ptr, align 8
  store ptr %0, ptr %3, align 8
  store ptr %1, ptr %4, align 8
  %5 = load ptr, ptr %3, align 8
  %6 = load ptr, ptr %4, align 8
  call void @make_digest_ex(ptr noundef %5, ptr noundef %6, i32 noundef 16)
  ret void
}