; Function Attrs: nofree norecurse nosync nounwind memory(argmem: readwrite) uwtable
define void @make_digest(ptr nocapture noundef writeonly %0, ptr nocapture noundef readonly %1) local_unnamed_addr #0 {
  br label %.lr.ph.i

.lr.ph.i:                                         ; preds = %.lr.ph.i, %2
  %indvars.iv.i = phi i64 [ 0, %2 ], [ %indvars.iv.next.i, %.lr.ph.i ]
  %3 = getelementptr inbounds i8, ptr %1, i64 %indvars.iv.i
  %4 = load i8, ptr %3, align 1
  %5 = lshr i8 %4, 4
  %6 = zext nneg i8 %5 to i64
  %7 = getelementptr inbounds [17 x i8], ptr @make_digest_ex.hexits, i64 0, i64 %6
  %8 = load i8, ptr %7, align 1
  %9 = shl nuw nsw i64 %indvars.iv.i, 1
  %10 = getelementptr inbounds i8, ptr %0, i64 %9
  store i8 %8, ptr %10, align 1
  %11 = load i8, ptr %3, align 1
  %12 = and i8 %11, 15
  %13 = zext nneg i8 %12 to i64
  %14 = getelementptr inbounds [17 x i8], ptr @make_digest_ex.hexits, i64 0, i64 %13
  %15 = load i8, ptr %14, align 1
  %16 = or disjoint i64 %9, 1
  %17 = getelementptr inbounds i8, ptr %0, i64 %16
  store i8 %15, ptr %17, align 1
  %indvars.iv.next.i = add nuw nsw i64 %indvars.iv.i, 1
  %exitcond.not.i = icmp eq i64 %indvars.iv.next.i, 16
  br i1 %exitcond.not.i, label %make_digest_ex.exit, label %.lr.ph.i

make_digest_ex.exit:                              ; preds = %.lr.ph.i
  %18 = getelementptr inbounds i8, ptr %0, i64 32
  store i8 0, ptr %18, align 1
  ret void
}